target datalayout = "e-m:e-p270:32:32-p271:32:32-p272:64:64-i64:64-i128:128-f80:128-n8:16:32:64-S128"
target triple = "x86_64-pc-linux-gnu"

%struct.ImGui_ImplGlfw_Data = type { ptr, i32, double, ptr, [9 x ptr], %struct.ImVec2, i8, i8, ptr, ptr, ptr, ptr, ptr, ptr, ptr, ptr }
%struct.ImVec2 = type { float, float }
%struct.ImGuiIO = type { i32, i32, %struct.ImVec2, float, float, ptr, ptr, ptr, ptr, float, i8, ptr, %struct.ImVec2, i8, i8, i8, i8, i8, i8, i8, i8, i8, i8, float, float, float, float, float, float, i8, i8, i8, i8, i8, i8, i8, i8, i8, i8, ptr, ptr, ptr, ptr, ptr, i8, i8, i8, i8, i8, i8, i8, float, i32, i32, i32, i32, %struct.ImVec2, ptr, %struct.ImVec2, [5 x i8], float, float, i32, i8, i8, i8, i8, i32, [154 x %struct.ImGuiKeyData], i8, %struct.ImVec2, [5 x %struct.ImVec2], [5 x double], [5 x i8], [5 x i8], [5 x i16], [5 x i16], [5 x i8], [5 x i8], [5 x i8], i8, i8, [5 x float], [5 x float], [5 x float], float, i8, i8, i8, i8, i16, %struct.ImVector }
%struct.ImGuiKeyData = type { i8, float, float, float }
%struct.ImVector = type { i32, i32, ptr }

; Function Attrs: mustprogress uwtable
define internal noundef zeroext i1 @_ZL34ImGui_ImplGlfw_ShouldChainCallbackP10GLFWwindow(ptr noundef %0) #1 {
  %2 = alloca ptr, align 8
  %3 = alloca ptr, align 8
  store ptr %0, ptr %2, align 8, !tbaa !8
  call void @llvm.lifetime.start.p0(i64 8, ptr %3) #9
  %4 = call noundef ptr @_ZL29ImGui_ImplGlfw_GetBackendDatav()
  store ptr %4, ptr %3, align 8, !tbaa !11
  %5 = load ptr, ptr %3, align 8, !tbaa !11
  %6 = getelementptr inbounds nuw %struct.ImGui_ImplGlfw_Data, ptr %5, i32 0, i32 7
  %7 = load i8, ptr %6, align 1, !tbaa !32, !range !33, !noundef !34
  %8 = trunc i8 %7 to i1
  br i1 %8, label %9, label %10

9:                                                ; preds = %1
  br label %16

10:                                               ; preds = %1
  %11 = load ptr, ptr %2, align 8, !tbaa !8
  %12 = load ptr, ptr %3, align 8, !tbaa !11
  %13 = getelementptr inbounds nuw %struct.ImGui_ImplGlfw_Data, ptr %12, i32 0, i32 0
  %14 = load ptr, ptr %13, align 8, !tbaa !35
  %15 = icmp eq ptr %11, %14
  br label %16

16:                                               ; preds = %10, %9
  %17 = phi i1 [ true, %9 ], [ %15, %10 ]
  call void @llvm.lifetime.end.p0(i64 8, ptr %3) #9
  ret i1 %17
}

; Function Attrs: mustprogress uwtable
define internal noundef ptr @_ZL29ImGui_ImplGlfw_GetBackendDatav() #1 {
  %1 = call noundef ptr @_ZN5ImGui17GetCurrentContextEv()
  %2 = icmp ne ptr %1, null
  br i1 %2, label %3, label %7

3:                                                ; preds = %0
  %4 = call noundef nonnull align 8 dereferenceable(2944) ptr @_ZN5ImGui5GetIOEv()
  %5 = getelementptr inbounds nuw %struct.ImGuiIO, ptr %4, i32 0, i32 41
  %6 = load ptr, ptr %5, align 8, !tbaa !22
  br label %8

7:                                                ; preds = %0
  br label %8

8:                                                ; preds = %7, %3
  %9 = phi ptr [ %6, %3 ], [ null, %7 ]
  ret ptr %9
}

; Function Attrs: mustprogress uwtable
define dso_local void @_Z27ImGui_ImplGlfw_CharCallbackP10GLFWwindowj(ptr noundef %0, i32 noundef %1) #1 {
  %3 = alloca ptr, align 8
  %4 = alloca i32, align 4
  %5 = alloca ptr, align 8
  %6 = alloca ptr, align 8
  store ptr %0, ptr %3, align 8, !tbaa !8
  store i32 %1, ptr %4, align 4, !tbaa !4
  call void @llvm.lifetime.start.p0(i64 8, ptr %5) #9
  %7 = call noundef ptr @_ZL29ImGui_ImplGlfw_GetBackendDatav()
  store ptr %7, ptr %5, align 8, !tbaa !11
  %8 = load ptr, ptr %5, align 8, !tbaa !11
  %9 = getelementptr inbounds nuw %struct.ImGui_ImplGlfw_Data, ptr %8, i32 0, i32 14
  %10 = load ptr, ptr %9, align 8, !tbaa !56
  %11 = icmp ne ptr %10, null
  br i1 %11, label %12, label %21

12:                                               ; preds = %2
  %13 = load ptr, ptr %3, align 8, !tbaa !8
  %14 = call noundef zeroext i1 @_ZL34ImGui_ImplGlfw_ShouldChainCallbackP10GLFWwindow(ptr noundef %13)
  br i1 %14, label %15, label %21

15:                                               ; preds = %12
  %16 = load ptr, ptr %5, align 8, !tbaa !11
  %17 = getelementptr inbounds nuw %struct.ImGui_ImplGlfw_Data, ptr %16, i32 0, i32 14
  %18 = load ptr, ptr %17, align 8, !tbaa !56
  %19 = load ptr, ptr %3, align 8, !tbaa !8
  %20 = load i32, ptr %4, align 4, !tbaa !4
  call void %18(ptr noundef %19, i32 noundef %20)
  br label %21

21:                                               ; preds = %15, %12, %2
  call void @llvm.lifetime.start.p0(i64 8, ptr %6) #9
  %22 = call noundef nonnull align 8 dereferenceable(2944) ptr @_ZN5ImGui5GetIOEv()
  store ptr %22, ptr %6, align 8, !tbaa !20
  %23 = load ptr, ptr %6, align 8, !tbaa !20
  %24 = load i32, ptr %4, align 4, !tbaa !4
  call void @_ZN7ImGuiIO17AddInputCharacterEj(ptr noundef nonnull align 8 dereferenceable(2944) %23, i32 noundef %24)
  call void @llvm.lifetime.end.p0(i64 8, ptr %6) #9
  call void @llvm.lifetime.end.p0(i64 8, ptr %5) #9
  ret void
}