; Function Attrs: mustprogress uwtable
define dso_local void @_Z27ImGui_ImplGlfw_CharCallbackP10GLFWwindowj(ptr noundef %0, i32 noundef %1) #1 {
_ZL29ImGui_ImplGlfw_GetBackendDatav.exit:
  %2 = tail call noundef ptr @_ZN5ImGui17GetCurrentContextEv()
  %.not.i = icmp ne ptr %2, null
  tail call void @llvm.assume(i1 %.not.i)
  %3 = tail call noundef nonnull align 8 dereferenceable(2944) ptr @_ZN5ImGui5GetIOEv()
  %4 = getelementptr inbounds nuw i8, ptr %3, i64 144
  %5 = load ptr, ptr %4, align 8, !tbaa !4
  %6 = getelementptr inbounds nuw i8, ptr %5, i64 168
  %7 = load ptr, ptr %6, align 8, !tbaa !40
  %.not = icmp eq ptr %7, null
  br i1 %.not, label %21, label %8

8:                                                ; preds = %_ZL29ImGui_ImplGlfw_GetBackendDatav.exit
  %9 = tail call noundef ptr @_ZN5ImGui17GetCurrentContextEv()
  %.not.i.i = icmp eq ptr %9, null
  br i1 %.not.i.i, label %_ZL29ImGui_ImplGlfw_GetBackendDatav.exit.i, label %10

10:                                               ; preds = %8
  %11 = tail call noundef nonnull align 8 dereferenceable(2944) ptr @_ZN5ImGui5GetIOEv()
  %12 = getelementptr inbounds nuw i8, ptr %11, i64 144
  %13 = load ptr, ptr %12, align 8, !tbaa !4
  br label %_ZL29ImGui_ImplGlfw_GetBackendDatav.exit.i

_ZL29ImGui_ImplGlfw_GetBackendDatav.exit.i:       ; preds = %10, %8
  %14 = phi ptr [ %13, %10 ], [ null, %8 ]
  %15 = getelementptr inbounds nuw i8, ptr %14, i64 113
  %16 = load i8, ptr %15, align 1, !tbaa !26, !range !27, !noundef !28
  %17 = trunc nuw i8 %16 to i1
  br i1 %17, label %_ZL34ImGui_ImplGlfw_ShouldChainCallbackP10GLFWwindow.exit.thread, label %_ZL34ImGui_ImplGlfw_ShouldChainCallbackP10GLFWwindow.exit

_ZL34ImGui_ImplGlfw_ShouldChainCallbackP10GLFWwindow.exit: ; preds = %_ZL29ImGui_ImplGlfw_GetBackendDatav.exit.i
  %18 = load ptr, ptr %14, align 8, !tbaa !29
  %19 = icmp eq ptr %0, %18
  br i1 %19, label %_ZL34ImGui_ImplGlfw_ShouldChainCallbackP10GLFWwindow.exit.thread, label %21

_ZL34ImGui_ImplGlfw_ShouldChainCallbackP10GLFWwindow.exit.thread: ; preds = %_ZL29ImGui_ImplGlfw_GetBackendDatav.exit.i, %_ZL34ImGui_ImplGlfw_ShouldChainCallbackP10GLFWwindow.exit
  %20 = load ptr, ptr %6, align 8, !tbaa !40
  tail call void %20(ptr noundef %0, i32 noundef %1)
  br label %21

21:                                               ; preds = %_ZL34ImGui_ImplGlfw_ShouldChainCallbackP10GLFWwindow.exit.thread, %_ZL34ImGui_ImplGlfw_ShouldChainCallbackP10GLFWwindow.exit, %_ZL29ImGui_ImplGlfw_GetBackendDatav.exit
  %22 = tail call noundef nonnull align 8 dereferenceable(2944) ptr @_ZN5ImGui5GetIOEv()
  tail call void @_ZN7ImGuiIO17AddInputCharacterEj(ptr noundef nonnull align 8 dereferenceable(2944) %22, i32 noundef %1)
  ret void
}